target datalayout = "e-m:e-p270:32:32-p271:32:32-p272:64:64-i64:64-i128:128-f80:128-n8:16:32:64-S128"
target triple = "x86_64-pc-linux-gnu"

%"class.gmx::internal::OptionSectionImpl" = type <{ %"class.gmx::IOptionsContainerWithSections", ptr, %"class.std::unique_ptr", %"class.gmx::OptionSectionInfo", %"class.std::__cxx11::basic_string", %"class.gmx::internal::OptionSectionImpl::Group", %"class.std::map", %"class.std::vector.11", i8, [7 x i8] }>
%"class.gmx::IOptionsContainerWithSections" = type { %"class.gmx::IOptionsContainer" }
%"class.gmx::IOptionsContainer" = type { ptr }
%"class.std::unique_ptr" = type { %"struct.std::__uniq_ptr_data" }
%"struct.std::__uniq_ptr_data" = type { %"class.std::__uniq_ptr_impl" }
%"class.std::__uniq_ptr_impl" = type { %"class.std::tuple" }
%"class.std::tuple" = type { %"struct.std::_Tuple_impl" }
%"struct.std::_Tuple_impl" = type { %"struct.std::_Head_base.1" }
%"struct.std::_Head_base.1" = type { ptr }
%"class.gmx::OptionSectionInfo" = type { %"class.gmx::AbstractOptionSectionInfo" }
%"class.gmx::AbstractOptionSectionInfo" = type { ptr }
%"class.std::__cxx11::basic_string" = type { %"struct.std::__cxx11::basic_string<char>::_Alloc_hider", i64, %union.anon }
%"struct.std::__cxx11::basic_string<char>::_Alloc_hider" = type { ptr }
%union.anon = type { i64, [8 x i8] }
%"class.gmx::internal::OptionSectionImpl::Group" = type { %"class.gmx::IOptionsContainer", ptr, %"class.std::vector", %"class.std::__cxx11::list" }
%"class.std::vector" = type { %"struct.std::_Vector_base" }
%"struct.std::_Vector_base" = type { %"struct.std::_Vector_base<gmx::AbstractOptionStorage *, std::allocator<gmx::AbstractOptionStorage *>>::_Vector_impl" }
%"struct.std::_Vector_base<gmx::AbstractOptionStorage *, std::allocator<gmx::AbstractOptionStorage *>>::_Vector_impl" = type { %"struct.std::_Vector_base<gmx::AbstractOptionStorage *, std::allocator<gmx::AbstractOptionStorage *>>::_Vector_impl_data" }
%"struct.std::_Vector_base<gmx::AbstractOptionStorage *, std::allocator<gmx::AbstractOptionStorage *>>::_Vector_impl_data" = type { ptr, ptr, ptr }
%"class.std::__cxx11::list" = type { %"class.std::__cxx11::_List_base" }
%"class.std::__cxx11::_List_base" = type { %"struct.std::__cxx11::_List_base<gmx::internal::OptionSectionImpl::Group, std::allocator<gmx::internal::OptionSectionImpl::Group>>::_List_impl" }
%"struct.std::__cxx11::_List_base<gmx::internal::OptionSectionImpl::Group, std::allocator<gmx::internal::OptionSectionImpl::Group>>::_List_impl" = type { %"struct.std::__detail::_List_node_header" }
%"struct.std::__detail::_List_node_header" = type { %"struct.std::__detail::_List_node_base", i64 }
%"struct.std::__detail::_List_node_base" = type { ptr, ptr }
%"class.std::map" = type { %"class.std::_Rb_tree" }
%"class.std::_Rb_tree" = type { %"struct.std::_Rb_tree<std::__cxx11::basic_string<char>, std::pair<const std::__cxx11::basic_string<char>, std::unique_ptr<gmx::AbstractOptionStorage>>, std::_Select1st<std::pair<const std::__cxx11::basic_string<char>, std::unique_ptr<gmx::AbstractOptionStorage>>>, std::less<std::__cxx11::basic_string<char>>>::_Rb_tree_impl" }
%"struct.std::_Rb_tree<std::__cxx11::basic_string<char>, std::pair<const std::__cxx11::basic_string<char>, std::unique_ptr<gmx::AbstractOptionStorage>>, std::_Select1st<std::pair<const std::__cxx11::basic_string<char>, std::unique_ptr<gmx::AbstractOptionStorage>>>, std::less<std::__cxx11::basic_string<char>>>::_Rb_tree_impl" = type { %"struct.std::_Rb_tree_key_compare", %"struct.std::_Rb_tree_header" }
%"struct.std::_Rb_tree_key_compare" = type { %"struct.std::less" }
%"struct.std::less" = type { i8 }
%"struct.std::_Rb_tree_header" = type { %"struct.std::_Rb_tree_node_base", i64 }
%"struct.std::_Rb_tree_node_base" = type { i32, ptr, ptr, ptr }
%"class.std::vector.11" = type { %"struct.std::_Vector_base.12" }
%"struct.std::_Vector_base.12" = type { %"struct.std::_Vector_base<std::unique_ptr<gmx::internal::OptionSectionImpl>, std::allocator<std::unique_ptr<gmx::internal::OptionSectionImpl>>>::_Vector_impl" }
%"struct.std::_Vector_base<std::unique_ptr<gmx::internal::OptionSectionImpl>, std::allocator<std::unique_ptr<gmx::internal::OptionSectionImpl>>>::_Vector_impl" = type { %"struct.std::_Vector_base<std::unique_ptr<gmx::internal::OptionSectionImpl>, std::allocator<std::unique_ptr<gmx::internal::OptionSectionImpl>>>::_Vector_impl_data" }
%"struct.std::_Vector_base<std::unique_ptr<gmx::internal::OptionSectionImpl>, std::allocator<std::unique_ptr<gmx::internal::OptionSectionImpl>>>::_Vector_impl_data" = type { ptr, ptr, ptr }
%"class.gmx::AbstractOptionSectionHandle" = type { %"class.gmx::IOptionsContainerWithSections", ptr }

$_ZNKSt10unique_ptrIN3gmx21IOptionSectionStorageESt14default_deleteIS1_EE3getEv = comdat any

$_ZN3gmx27AbstractOptionSectionHandleD2Ev = comdat any

$_ZN3gmx27AbstractOptionSectionHandleD0Ev = comdat any

$_ZNKSt15__uniq_ptr_implIN3gmx21IOptionSectionStorageESt14default_deleteIS1_EE6_M_ptrEv = comdat any

$_ZSt3getILm0EJPN3gmx21IOptionSectionStorageESt14default_deleteIS1_EEERKNSt13tuple_elementIXT_ESt5tupleIJDpT0_EEE4typeERKS9_ = comdat any

$_ZSt12__get_helperILm0EPN3gmx21IOptionSectionStorageEJSt14default_deleteIS1_EEERKT0_RKSt11_Tuple_implIXT_EJS5_DpT1_EE = comdat any

$_ZNSt11_Tuple_implILm0EJPN3gmx21IOptionSectionStorageESt14default_deleteIS1_EEE7_M_headERKS5_ = comdat any

$_ZNSt10_Head_baseILm0EPN3gmx21IOptionSectionStorageELb0EE7_M_headERKS3_ = comdat any

@_ZTVN3gmx27AbstractOptionSectionHandleE = unnamed_addr constant { [7 x ptr] } { [7 x ptr] [ptr null, ptr @_ZTIN3gmx27AbstractOptionSectionHandleE, ptr @_ZN3gmx27AbstractOptionSectionHandle8addGroupEv, ptr @_ZN3gmx27AbstractOptionSectionHandleD2Ev, ptr @_ZN3gmx27AbstractOptionSectionHandleD0Ev, ptr @_ZN3gmx27AbstractOptionSectionHandle13addOptionImplERKNS_14AbstractOptionE, ptr @_ZN3gmx27AbstractOptionSectionHandle14addSectionImplERKNS_21AbstractOptionSectionE] }, align 8
@_ZTVN10__cxxabiv120__si_class_type_infoE = external global [0 x ptr]
@_ZTSN3gmx27AbstractOptionSectionHandleE = constant [36 x i8] c"N3gmx27AbstractOptionSectionHandleE\00", align 1
@_ZTIN3gmx29IOptionsContainerWithSectionsE = external constant ptr
@_ZTIN3gmx27AbstractOptionSectionHandleE = constant { ptr, ptr, ptr } { ptr getelementptr inbounds (ptr, ptr @_ZTVN10__cxxabiv120__si_class_type_infoE, i64 2), ptr @_ZTSN3gmx27AbstractOptionSectionHandleE, ptr @_ZTIN3gmx29IOptionsContainerWithSectionsE }, align 8

; Function Attrs: mustprogress nounwind uwtable
define noundef ptr @_ZN3gmx27AbstractOptionSectionHandle10getStorageEPNS_8internal17OptionSectionImplE(ptr noundef %0) #0 align 2 {
  %2 = alloca ptr, align 8
  store ptr %0, ptr %2, align 8
  %3 = load ptr, ptr %2, align 8
  %4 = getelementptr inbounds %"class.gmx::internal::OptionSectionImpl", ptr %3, i32 0, i32 2
  %5 = call noundef ptr @_ZNKSt10unique_ptrIN3gmx21IOptionSectionStorageESt14default_deleteIS1_EE3getEv(ptr noundef nonnull align 8 dereferenceable(8) %4) #4
  ret ptr %5
}

; Function Attrs: mustprogress nounwind uwtable
define linkonce_odr noundef ptr @_ZNKSt10unique_ptrIN3gmx21IOptionSectionStorageESt14default_deleteIS1_EE3getEv(ptr noundef nonnull align 8 dereferenceable(8) %0) #0 comdat align 2 {
  %2 = alloca ptr, align 8
  store ptr %0, ptr %2, align 8
  %3 = load ptr, ptr %2, align 8
  %4 = getelementptr inbounds %"class.std::unique_ptr", ptr %3, i32 0, i32 0
  %5 = call noundef ptr @_ZNKSt15__uniq_ptr_implIN3gmx21IOptionSectionStorageESt14default_deleteIS1_EE6_M_ptrEv(ptr noundef nonnull align 8 dereferenceable(8) %4) #4
  ret ptr %5
}

; Function Attrs: mustprogress uwtable
define noundef nonnull align 8 dereferenceable(8) ptr @_ZN3gmx27AbstractOptionSectionHandle8addGroupEv(ptr noundef nonnull align 8 dereferenceable(16) %0) unnamed_addr #1 align 2 {
  %2 = alloca ptr, align 8
  store ptr %0, ptr %2, align 8
  %3 = load ptr, ptr %2, align 8
  %4 = getelementptr inbounds %"class.gmx::AbstractOptionSectionHandle", ptr %3, i32 0, i32 1
  %5 = load ptr, ptr %4, align 8
  %6 = load ptr, ptr %5, align 8
  %7 = getelementptr inbounds ptr, ptr %6, i64 0
  %8 = load ptr, ptr %7, align 8
  %9 = call noundef nonnull align 8 dereferenceable(8) ptr %8(ptr noundef nonnull align 8 dereferenceable(201) %5)
  ret ptr %9
}

; Function Attrs: mustprogress uwtable
define noundef ptr @_ZN3gmx27AbstractOptionSectionHandle14addSectionImplERKNS_21AbstractOptionSectionE(ptr noundef nonnull align 8 dereferenceable(16) %0, ptr noundef nonnull align 8 dereferenceable(16) %1) unnamed_addr #1 align 2 {
  %3 = alloca ptr, align 8
  %4 = alloca ptr, align 8
  store ptr %0, ptr %3, align 8
  store ptr %1, ptr %4, align 8
  %5 = load ptr, ptr %3, align 8
  %6 = getelementptr inbounds %"class.gmx::AbstractOptionSectionHandle", ptr %5, i32 0, i32 1
  %7 = load ptr, ptr %6, align 8
  %8 = load ptr, ptr %4, align 8
  %9 = load ptr, ptr %7, align 8
  %10 = getelementptr inbounds ptr, ptr %9, i64 4
  %11 = load ptr, ptr %10, align 8
  %12 = call noundef ptr %11(ptr noundef nonnull align 8 dereferenceable(201) %7, ptr noundef nonnull align 8 dereferenceable(16) %8)
  ret ptr %12
}

; Function Attrs: mustprogress uwtable
define noundef ptr @_ZN3gmx27AbstractOptionSectionHandle13addOptionImplERKNS_14AbstractOptionE(ptr noundef nonnull align 8 dereferenceable(16) %0, ptr noundef nonnull align 8 dereferenceable(48) %1) unnamed_addr #1 align 2 {
  %3 = alloca ptr, align 8
  %4 = alloca ptr, align 8
  store ptr %0, ptr %3, align 8
  store ptr %1, ptr %4, align 8
  %5 = load ptr, ptr %3, align 8
  %6 = getelementptr inbounds %"class.gmx::AbstractOptionSectionHandle", ptr %5, i32 0, i32 1
  %7 = load ptr, ptr %6, align 8
  %8 = load ptr, ptr %4, align 8
  %9 = load ptr, ptr %7, align 8
  %10 = getelementptr inbounds ptr, ptr %9, i64 3
  %11 = load ptr, ptr %10, align 8
  %12 = call noundef ptr %11(ptr noundef nonnull align 8 dereferenceable(201) %7, ptr noundef nonnull align 8 dereferenceable(48) %8)
  ret ptr %12
}

; Function Attrs: mustprogress nounwind uwtable
define noundef nonnull align 8 dereferenceable(32) ptr @_ZNK3gmx25AbstractOptionSectionInfo4nameB5cxx11Ev(ptr noundef nonnull align 8 dereferenceable(8) %0) #0 align 2 {
  %2 = alloca ptr, align 8
  store ptr %0, ptr %2, align 8
  %3 = load ptr, ptr %2, align 8
  %4 = getelementptr inbounds %"class.gmx::AbstractOptionSectionInfo", ptr %3, i32 0, i32 0
  %5 = load ptr, ptr %4, align 8
  %6 = getelementptr inbounds %"class.gmx::internal::OptionSectionImpl", ptr %5, i32 0, i32 4
  ret ptr %6
}

; Function Attrs: mustprogress nounwind uwtable
define linkonce_odr void @_ZN3gmx27AbstractOptionSectionHandleD2Ev(ptr noundef nonnull align 8 dereferenceable(16) %0) unnamed_addr #0 comdat align 2 {
  %2 = alloca ptr, align 8
  store ptr %0, ptr %2, align 8
  %3 = load ptr, ptr %2, align 8
  call void @_ZN3gmx29IOptionsContainerWithSectionsD2Ev(ptr noundef nonnull align 8 dereferenceable(8) %3) #4
  ret void
}

; Function Attrs: mustprogress nounwind uwtable
define linkonce_odr void @_ZN3gmx27AbstractOptionSectionHandleD0Ev(ptr noundef nonnull align 8 dereferenceable(16) %0) unnamed_addr #0 comdat align 2 {
  %2 = alloca ptr, align 8
  store ptr %0, ptr %2, align 8
  %3 = load ptr, ptr %2, align 8
  call void @_ZN3gmx27AbstractOptionSectionHandleD2Ev(ptr noundef nonnull align 8 dereferenceable(16) %3) #4
  call void @_ZdlPv(ptr noundef %3) #5
  ret void
}

; Function Attrs: nounwind
declare void @_ZN3gmx29IOptionsContainerWithSectionsD2Ev(ptr noundef nonnull align 8 dereferenceable(8)) unnamed_addr #2

; Function Attrs: nobuiltin nounwind
declare void @_ZdlPv(ptr noundef) #3

; Function Attrs: mustprogress nounwind uwtable
define linkonce_odr noundef ptr @_ZNKSt15__uniq_ptr_implIN3gmx21IOptionSectionStorageESt14default_deleteIS1_EE6_M_ptrEv(ptr noundef nonnull align 8 dereferenceable(8) %0) #0 comdat align 2 {
  %2 = alloca ptr, align 8
  store ptr %0, ptr %2, align 8
  %3 = load ptr, ptr %2, align 8
  %4 = getelementptr inbounds %"class.std::__uniq_ptr_impl", ptr %3, i32 0, i32 0
  %5 = call noundef nonnull align 8 dereferenceable(8) ptr @_ZSt3getILm0EJPN3gmx21IOptionSectionStorageESt14default_deleteIS1_EEERKNSt13tuple_elementIXT_ESt5tupleIJDpT0_EEE4typeERKS9_(ptr noundef nonnull align 8 dereferenceable(8) %4) #4
  %6 = load ptr, ptr %5, align 8
  ret ptr %6
}

; Function Attrs: mustprogress nounwind uwtable
define linkonce_odr noundef nonnull align 8 dereferenceable(8) ptr @_ZSt3getILm0EJPN3gmx21IOptionSectionStorageESt14default_deleteIS1_EEERKNSt13tuple_elementIXT_ESt5tupleIJDpT0_EEE4typeERKS9_(ptr noundef nonnull align 8 dereferenceable(8) %0) #0 comdat {
  %2 = alloca ptr, align 8
  store ptr %0, ptr %2, align 8
  %3 = load ptr, ptr %2, align 8
  %4 = call noundef nonnull align 8 dereferenceable(8) ptr @_ZSt12__get_helperILm0EPN3gmx21IOptionSectionStorageEJSt14default_deleteIS1_EEERKT0_RKSt11_Tuple_implIXT_EJS5_DpT1_EE(ptr noundef nonnull align 8 dereferenceable(8) %3) #4
  ret ptr %4
}

; Function Attrs: mustprogress nounwind uwtable
define linkonce_odr noundef nonnull align 8 dereferenceable(8) ptr @_ZSt12__get_helperILm0EPN3gmx21IOptionSectionStorageEJSt14default_deleteIS1_EEERKT0_RKSt11_Tuple_implIXT_EJS5_DpT1_EE(ptr noundef nonnull align 8 dereferenceable(8) %0) #0 comdat {
  %2 = alloca ptr, align 8
  store ptr %0, ptr %2, align 8
  %3 = load ptr, ptr %2, align 8
  %4 = call noundef nonnull align 8 dereferenceable(8) ptr @_ZNSt11_Tuple_implILm0EJPN3gmx21IOptionSectionStorageESt14default_deleteIS1_EEE7_M_headERKS5_(ptr noundef nonnull align 8 dereferenceable(8) %3) #4
  ret ptr %4
}

; Function Attrs: mustprogress nounwind uwtable
define linkonce_odr noundef nonnull align 8 dereferenceable(8) ptr @_ZNSt11_Tuple_implILm0EJPN3gmx21IOptionSectionStorageESt14default_deleteIS1_EEE7_M_headERKS5_(ptr noundef nonnull align 8 dereferenceable(8) %0) #0 comdat align 2 {
  %2 = alloca ptr, align 8
  store ptr %0, ptr %2, align 8
  %3 = load ptr, ptr %2, align 8
  %4 = call noundef nonnull align 8 dereferenceable(8) ptr @_ZNSt10_Head_baseILm0EPN3gmx21IOptionSectionStorageELb0EE7_M_headERKS3_(ptr noundef nonnull align 8 dereferenceable(8) %3) #4
  ret ptr %4
}

; Function Attrs: mustprogress nounwind uwtable
define linkonce_odr noundef nonnull align 8 dereferenceable(8) ptr @_ZNSt10_Head_baseILm0EPN3gmx21IOptionSectionStorageELb0EE7_M_headERKS3_(ptr noundef nonnull align 8 dereferenceable(8) %0) #0 comdat align 2 {
  %2 = alloca ptr, align 8
  store ptr %0, ptr %2, align 8
  %3 = load ptr, ptr %2, align 8
  %4 = getelementptr inbounds %"struct.std::_Head_base.1", ptr %3, i32 0, i32 0
  ret ptr %4
}


!llvm.module.flags = !{!0, !1, !2, !3}

!0 = !{i32 1, !"wchar_size", i32 4}
!1 = !{i32 8, !"PIC Level", i32 2}
!2 = !{i32 7, !"uwtable", i32 2}
!3 = !{i32 7, !"frame-pointer", i32 2}
