; ModuleID = 'bench/gromacs/original/abstractsection.cpp.ll'
source_filename = "bench/gromacs/original/abstractsection.cpp.ll"
target datalayout = "e-m:e-p270:32:32-p271:32:32-p272:64:64-i64:64-i128:128-f80:128-n8:16:32:64-S128"
target triple = "x86_64-pc-linux-gnu"

$_ZN3gmx27AbstractOptionSectionHandleD2Ev = comdat any

$_ZN3gmx27AbstractOptionSectionHandleD0Ev = comdat any

@_ZTVN3gmx27AbstractOptionSectionHandleE = unnamed_addr constant { [7 x ptr] } { [7 x ptr] [ptr null, ptr @_ZTIN3gmx27AbstractOptionSectionHandleE, ptr @_ZN3gmx27AbstractOptionSectionHandle8addGroupEv, ptr @_ZN3gmx27AbstractOptionSectionHandleD2Ev, ptr @_ZN3gmx27AbstractOptionSectionHandleD0Ev, ptr @_ZN3gmx27AbstractOptionSectionHandle13addOptionImplERKNS_14AbstractOptionE, ptr @_ZN3gmx27AbstractOptionSectionHandle14addSectionImplERKNS_21AbstractOptionSectionE] }, align 8
@_ZTVN10__cxxabiv120__si_class_type_infoE = external global [0 x ptr]
@_ZTSN3gmx27AbstractOptionSectionHandleE = constant [36 x i8] c"N3gmx27AbstractOptionSectionHandleE\00", align 1
@_ZTIN3gmx29IOptionsContainerWithSectionsE = external constant ptr
@_ZTIN3gmx27AbstractOptionSectionHandleE = constant { ptr, ptr, ptr } { ptr getelementptr inbounds (ptr, ptr @_ZTVN10__cxxabiv120__si_class_type_infoE, i64 2), ptr @_ZTSN3gmx27AbstractOptionSectionHandleE, ptr @_ZTIN3gmx29IOptionsContainerWithSectionsE }, align 8

; Function Attrs: mustprogress nofree norecurse nosync nounwind willreturn memory(argmem: read) uwtable
define noundef ptr @_ZN3gmx27AbstractOptionSectionHandle10getStorageEPNS_8internal17OptionSectionImplE(ptr nocapture noundef readonly %0) local_unnamed_addr #0 align 2 {
  %2 = getelementptr inbounds i8, ptr %0, i64 16
  %3 = load ptr, ptr %2, align 8
  ret ptr %3
}

; Function Attrs: mustprogress uwtable
define noundef nonnull align 8 dereferenceable(8) ptr @_ZN3gmx27AbstractOptionSectionHandle8addGroupEv(ptr nocapture noundef nonnull readonly align 8 dereferenceable(16) %0) unnamed_addr #1 align 2 {
  %2 = getelementptr inbounds i8, ptr %0, i64 8
  %3 = load ptr, ptr %2, align 8
  %4 = load ptr, ptr %3, align 8
  %5 = load ptr, ptr %4, align 8
  %6 = tail call noundef nonnull align 8 dereferenceable(8) ptr %5(ptr noundef nonnull align 8 dereferenceable(201) %3)
  ret ptr %6
}

; Function Attrs: mustprogress uwtable
define noundef ptr @_ZN3gmx27AbstractOptionSectionHandle14addSectionImplERKNS_21AbstractOptionSectionE(ptr nocapture noundef nonnull readonly align 8 dereferenceable(16) %0, ptr noundef nonnull align 8 dereferenceable(16) %1) unnamed_addr #1 align 2 {
  %3 = getelementptr inbounds i8, ptr %0, i64 8
  %4 = load ptr, ptr %3, align 8
  %5 = load ptr, ptr %4, align 8
  %6 = getelementptr inbounds i8, ptr %5, i64 32
  %7 = load ptr, ptr %6, align 8
  %8 = tail call noundef ptr %7(ptr noundef nonnull align 8 dereferenceable(201) %4, ptr noundef nonnull align 8 dereferenceable(16) %1)
  ret ptr %8
}

; Function Attrs: mustprogress uwtable
define noundef ptr @_ZN3gmx27AbstractOptionSectionHandle13addOptionImplERKNS_14AbstractOptionE(ptr nocapture noundef nonnull readonly align 8 dereferenceable(16) %0, ptr noundef nonnull align 8 dereferenceable(48) %1) unnamed_addr #1 align 2 {
  %3 = getelementptr inbounds i8, ptr %0, i64 8
  %4 = load ptr, ptr %3, align 8
  %5 = load ptr, ptr %4, align 8
  %6 = getelementptr inbounds i8, ptr %5, i64 24
  %7 = load ptr, ptr %6, align 8
  %8 = tail call noundef ptr %7(ptr noundef nonnull align 8 dereferenceable(201) %4, ptr noundef nonnull align 8 dereferenceable(48) %1)
  ret ptr %8
}

; Function Attrs: mustprogress nofree norecurse nosync nounwind willreturn memory(argmem: read) uwtable
define noundef nonnull align 8 dereferenceable(32) ptr @_ZNK3gmx25AbstractOptionSectionInfo4nameB5cxx11Ev(ptr nocapture noundef nonnull readonly align 8 dereferenceable(8) %0) local_unnamed_addr #0 align 2 {
  %2 = load ptr, ptr %0, align 8
  %3 = getelementptr inbounds i8, ptr %2, i64 32
  ret ptr %3
}

; Function Attrs: mustprogress nounwind uwtable
define linkonce_odr void @_ZN3gmx27AbstractOptionSectionHandleD2Ev(ptr noundef nonnull align 8 dereferenceable(16) %0) unnamed_addr #2 comdat align 2 {
  tail call void @_ZN3gmx29IOptionsContainerWithSectionsD2Ev(ptr noundef nonnull align 8 dereferenceable(8) %0) #5
  ret void
}

; Function Attrs: mustprogress nounwind uwtable
define linkonce_odr void @_ZN3gmx27AbstractOptionSectionHandleD0Ev(ptr noundef nonnull align 8 dereferenceable(16) %0) unnamed_addr #2 comdat align 2 {
  tail call void @_ZN3gmx29IOptionsContainerWithSectionsD2Ev(ptr noundef nonnull align 8 dereferenceable(8) %0) #5
  tail call void @_ZdlPv(ptr noundef nonnull %0) #6
  ret void
}

; Function Attrs: nounwind
declare void @_ZN3gmx29IOptionsContainerWithSectionsD2Ev(ptr noundef nonnull align 8 dereferenceable(8)) unnamed_addr #3

; Function Attrs: nobuiltin nounwind
declare void @_ZdlPv(ptr noundef) local_unnamed_addr #4


!llvm.module.flags = !{!0, !1, !2, !3}

!0 = !{i32 1, !"wchar_size", i32 4}
!1 = !{i32 8, !"PIC Level", i32 2}
!2 = !{i32 7, !"uwtable", i32 2}
!3 = !{i32 7, !"frame-pointer", i32 2}
